; ModuleID = '44/1022.c'
source_filename = "44/1022.c"
target datalayout = "e-m:e-p270:32:32-p271:32:32-p272:64:64-i64:64-f80:128-n8:16:32:64-S128"
target triple = "x86_64-pc-linux-gnu"

@.str = private unnamed_addr constant [3 x i8] c"%d\00", align 1
@.str.1 = private unnamed_addr constant [4 x i8] c"%d\0A\00", align 1

; Function Attrs: noinline nounwind uwtable
define dso_local i32 @reverse(i32 %0) #0 {
  %2 = alloca i32, align 4
  %3 = alloca i32, align 4
  %4 = alloca i32, align 4
  %5 = alloca [10 x i32], align 16
  store i32 %0, i32* %2, align 4
  %6 = bitcast [10 x i32]* %5 to i8*
  call void @llvm.memset.p0i8.i64(i8* align 16 %6, i8 0, i64 40, i1 false)
  %7 = load i32, i32* %2, align 4
  %8 = icmp sgt i32 %7, 0
  br i1 %8, label %9, label %52

9:                                                ; preds = %1
  store i32 0, i32* %4, align 4
  br label %10

10:                                               ; preds = %21, %9
  %11 = load i32, i32* %2, align 4
  %12 = icmp ne i32 %11, 0
  br i1 %12, label %13, label %24

13:                                               ; preds = %10
  %14 = load i32, i32* %2, align 4
  %15 = srem i32 %14, 10
  %16 = load i32, i32* %4, align 4
  %17 = sext i32 %16 to i64
  %18 = getelementptr inbounds [10 x i32], [10 x i32]* %5, i64 0, i64 %17
  store i32 %15, i32* %18, align 4
  %19 = load i32, i32* %2, align 4
  %20 = sdiv i32 %19, 10
  store i32 %20, i32* %2, align 4
  br label %21

21:                                               ; preds = %13
  %22 = load i32, i32* %4, align 4
  %23 = add nsw i32 %22, 1
  store i32 %23, i32* %4, align 4
  br label %10

24:                                               ; preds = %10
  store i32 0, i32* %3, align 4
  store i32 0, i32* %2, align 4
  br label %25

25:                                               ; preds = %37, %24
  %26 = load i32, i32* %3, align 4
  %27 = load i32, i32* %4, align 4
  %28 = icmp slt i32 %26, %27
  br i1 %28, label %29, label %40

29:                                               ; preds = %25
  %30 = load i32, i32* %2, align 4
  %31 = mul nsw i32 %30, 10
  %32 = load i32, i32* %3, align 4
  %33 = sext i32 %32 to i64
  %34 = getelementptr inbounds [10 x i32], [10 x i32]* %5, i64 0, i64 %33
  %35 = load i32, i32* %34, align 4
  %36 = add nsw i32 %31, %35
  store i32 %36, i32* %2, align 4
  br label %37

37:                                               ; preds = %29
  %38 = load i32, i32* %3, align 4
  %39 = add nsw i32 %38, 1
  store i32 %39, i32* %3, align 4
  br label %25

40:                                               ; preds = %25
  store i32 0, i32* %3, align 4
  br label %41

41:                                               ; preds = %48, %40
  %42 = load i32, i32* %3, align 4
  %43 = icmp slt i32 %42, 10
  br i1 %43, label %44, label %51

44:                                               ; preds = %41
  %45 = load i32, i32* %3, align 4
  %46 = sext i32 %45 to i64
  %47 = getelementptr inbounds [10 x i32], [10 x i32]* %5, i64 0, i64 %46
  store i32 0, i32* %47, align 4
  br label %48

48:                                               ; preds = %44
  %49 = load i32, i32* %3, align 4
  %50 = add nsw i32 %49, 1
  store i32 %50, i32* %3, align 4
  br label %41

51:                                               ; preds = %41
  br label %52

52:                                               ; preds = %51, %1
  %53 = load i32, i32* %2, align 4
  %54 = icmp eq i32 %53, 0
  br i1 %54, label %58, label %55

55:                                               ; preds = %52
  %56 = load i32, i32* %2, align 4
  %57 = icmp eq i32 %56, 0
  br i1 %57, label %58, label %59

58:                                               ; preds = %55, %52
  store i32 0, i32* %2, align 4
  br label %59

59:                                               ; preds = %58, %55
  %60 = load i32, i32* %2, align 4
  %61 = icmp slt i32 %60, 0
  br i1 %61, label %62, label %109

62:                                               ; preds = %59
  %63 = load i32, i32* %2, align 4
  %64 = sub nsw i32 0, %63
  store i32 %64, i32* %2, align 4
  store i32 0, i32* %4, align 4
  br label %65

65:                                               ; preds = %76, %62
  %66 = load i32, i32* %2, align 4
  %67 = icmp ne i32 %66, 0
  br i1 %67, label %68, label %79

68:                                               ; preds = %65
  %69 = load i32, i32* %2, align 4
  %70 = srem i32 %69, 10
  %71 = load i32, i32* %4, align 4
  %72 = sext i32 %71 to i64
  %73 = getelementptr inbounds [10 x i32], [10 x i32]* %5, i64 0, i64 %72
  store i32 %70, i32* %73, align 4
  %74 = load i32, i32* %2, align 4
  %75 = sdiv i32 %74, 10
  store i32 %75, i32* %2, align 4
  br label %76

76:                                               ; preds = %68
  %77 = load i32, i32* %4, align 4
  %78 = add nsw i32 %77, 1
  store i32 %78, i32* %4, align 4
  br label %65

79:                                               ; preds = %65
  store i32 0, i32* %3, align 4
  store i32 0, i32* %2, align 4
  br label %80

80:                                               ; preds = %92, %79
  %81 = load i32, i32* %3, align 4
  %82 = load i32, i32* %4, align 4
  %83 = icmp slt i32 %81, %82
  br i1 %83, label %84, label %95

84:                                               ; preds = %80
  %85 = load i32, i32* %2, align 4
  %86 = mul nsw i32 %85, 10
  %87 = load i32, i32* %3, align 4
  %88 = sext i32 %87 to i64
  %89 = getelementptr inbounds [10 x i32], [10 x i32]* %5, i64 0, i64 %88
  %90 = load i32, i32* %89, align 4
  %91 = add nsw i32 %86, %90
  store i32 %91, i32* %2, align 4
  br label %92

92:                                               ; preds = %84
  %93 = load i32, i32* %3, align 4
  %94 = add nsw i32 %93, 1
  store i32 %94, i32* %3, align 4
  br label %80

95:                                               ; preds = %80
  %96 = load i32, i32* %2, align 4
  %97 = mul nsw i32 %96, -1
  store i32 %97, i32* %2, align 4
  store i32 0, i32* %3, align 4
  br label %98

98:                                               ; preds = %105, %95
  %99 = load i32, i32* %3, align 4
  %100 = icmp slt i32 %99, 10
  br i1 %100, label %101, label %108

101:                                              ; preds = %98
  %102 = load i32, i32* %3, align 4
  %103 = sext i32 %102 to i64
  %104 = getelementptr inbounds [10 x i32], [10 x i32]* %5, i64 0, i64 %103
  store i32 0, i32* %104, align 4
  br label %105

105:                                              ; preds = %101
  %106 = load i32, i32* %3, align 4
  %107 = add nsw i32 %106, 1
  store i32 %107, i32* %3, align 4
  br label %98

108:                                              ; preds = %98
  br label %109

109:                                              ; preds = %108, %59
  %110 = load i32, i32* %2, align 4
  ret i32 %110
}

; Function Attrs: argmemonly nounwind willreturn
declare void @llvm.memset.p0i8.i64(i8* nocapture writeonly, i8, i64, i1 immarg) #1

; Function Attrs: noinline nounwind uwtable
define dso_local void @main() #0 {
  %1 = alloca i32, align 4
  %2 = alloca [6 x i32], align 16
  store i32 0, i32* %1, align 4
  br label %3

3:                                                ; preds = %11, %0
  %4 = load i32, i32* %1, align 4
  %5 = icmp slt i32 %4, 6
  br i1 %5, label %6, label %14

6:                                                ; preds = %3
  %7 = load i32, i32* %1, align 4
  %8 = sext i32 %7 to i64
  %9 = getelementptr inbounds [6 x i32], [6 x i32]* %2, i64 0, i64 %8
  %10 = call i32 (i8*, ...) @__isoc99_scanf(i8* getelementptr inbounds ([3 x i8], [3 x i8]* @.str, i64 0, i64 0), i32* %9)
  br label %11

11:                                               ; preds = %6
  %12 = load i32, i32* %1, align 4
  %13 = add nsw i32 %12, 1
  store i32 %13, i32* %1, align 4
  br label %3

14:                                               ; preds = %3
  store i32 0, i32* %1, align 4
  br label %15

15:                                               ; preds = %25, %14
  %16 = load i32, i32* %1, align 4
  %17 = icmp slt i32 %16, 6
  br i1 %17, label %18, label %28

18:                                               ; preds = %15
  %19 = load i32, i32* %1, align 4
  %20 = sext i32 %19 to i64
  %21 = getelementptr inbounds [6 x i32], [6 x i32]* %2, i64 0, i64 %20
  %22 = load i32, i32* %21, align 4
  %23 = call i32 @reverse(i32 %22)
  %24 = call i32 (i8*, ...) @printf(i8* getelementptr inbounds ([4 x i8], [4 x i8]* @.str.1, i64 0, i64 0), i32 %23)
  br label %25

25:                                               ; preds = %18
  %26 = load i32, i32* %1, align 4
  %27 = add nsw i32 %26, 1
  store i32 %27, i32* %1, align 4
  br label %15

28:                                               ; preds = %15
  ret void
}

declare dso_local i32 @__isoc99_scanf(i8*, ...) #2

declare dso_local i32 @printf(i8*, ...) #2


!llvm.module.flags = !{!0}
!llvm.ident = !{!1}

!0 = !{i32 1, !"wchar_size", i32 4}
!1 = !{!"clang version 10.0.0-4ubuntu1 "}
